target datalayout = "e-m:e-p270:32:32-p271:32:32-p272:64:64-i64:64-i128:128-f80:128-n8:16:32:64-S128"
target triple = "x86_64-pc-linux-gnu"

%struct.Fraig_ManStruct_t_ = type { ptr, ptr, ptr, ptr, ptr, ptr, ptr, ptr, ptr, i32, i32, i32, i32, i32, i32, i32, i32, i32, i32, i32, i32, i64, i32, i32, i32, i32, i32, ptr, ptr, ptr, ptr, ptr, i32, ptr, ptr, ptr, ptr, ptr, ptr, i32, ptr, ptr, ptr, ptr, i32, i32, i32, i32, i32, i32, i32, i32, i32, i32, i32, i32, i32, i32, i32, i32, i32, i32, i32, i64, i64, i64, i64, i64, i64, i64, i64, i64, i64, i64, i64 }
%struct.Fraig_NodeVecStruct_t_ = type { i32, i32, ptr }
%struct.Fraig_NodeStruct_t_ = type { i32, i32, i32, i32, i32, i32, i32, ptr, ptr, ptr, ptr, ptr, ptr, ptr, ptr, i32, i32, ptr, ptr, ptr, ptr, ptr, ptr, ptr }
%struct.timespec = type { i64, i64 }

@.str.12 = private unnamed_addr constant [42 x i8] c"Total nodes = %d. Referenced nodes = %d.\0A\00", align 1
@.str.13 = private unnamed_addr constant [47 x i8] c"Number of candidate pairs = %d.  Proved = %d.\0A\00", align 1

; Function Attrs: nounwind uwtable
define i32 @Fraig_NodeSimsContained(ptr noundef %0, ptr noundef %1, ptr noundef %2) #0 {
  %4 = alloca i32, align 4
  %5 = alloca ptr, align 8
  %6 = alloca ptr, align 8
  %7 = alloca ptr, align 8
  %8 = alloca ptr, align 8
  %9 = alloca ptr, align 8
  %10 = alloca i32, align 4
  store ptr %0, ptr %5, align 8
  store ptr %1, ptr %6, align 8
  store ptr %2, ptr %7, align 8
  %11 = load ptr, ptr %6, align 8
  %12 = getelementptr inbounds %struct.Fraig_NodeStruct_t_, ptr %11, i32 0, i32 17
  %13 = load ptr, ptr %12, align 8
  store ptr %13, ptr %8, align 8
  %14 = load ptr, ptr %7, align 8
  %15 = getelementptr inbounds %struct.Fraig_NodeStruct_t_, ptr %14, i32 0, i32 17
  %16 = load ptr, ptr %15, align 8
  store ptr %16, ptr %9, align 8
  store i32 0, ptr %10, align 4
  br label %17

17:                                               ; preds = %39, %3
  %18 = load i32, ptr %10, align 4
  %19 = load ptr, ptr %5, align 8
  %20 = getelementptr inbounds %struct.Fraig_ManStruct_t_, ptr %19, i32 0, i32 9
  %21 = load i32, ptr %20, align 8
  %22 = icmp slt i32 %18, %21
  br i1 %22, label %23, label %42

23:                                               ; preds = %17
  %24 = load ptr, ptr %8, align 8
  %25 = load i32, ptr %10, align 4
  %26 = sext i32 %25 to i64
  %27 = getelementptr inbounds i32, ptr %24, i64 %26
  %28 = load i32, ptr %27, align 4
  %29 = load ptr, ptr %9, align 8
  %30 = load i32, ptr %10, align 4
  %31 = sext i32 %30 to i64
  %32 = getelementptr inbounds i32, ptr %29, i64 %31
  %33 = load i32, ptr %32, align 4
  %34 = xor i32 %33, -1
  %35 = and i32 %28, %34
  %36 = icmp ne i32 %35, 0
  br i1 %36, label %37, label %38

37:                                               ; preds = %23
  store i32 0, ptr %4, align 4
  br label %75

38:                                               ; preds = %23
  br label %39

39:                                               ; preds = %38
  %40 = load i32, ptr %10, align 4
  %41 = add nsw i32 %40, 1
  store i32 %41, ptr %10, align 4
  br label %17, !llvm.loop !21

42:                                               ; preds = %17
  %43 = load ptr, ptr %6, align 8
  %44 = getelementptr inbounds %struct.Fraig_NodeStruct_t_, ptr %43, i32 0, i32 18
  %45 = load ptr, ptr %44, align 8
  store ptr %45, ptr %8, align 8
  %46 = load ptr, ptr %7, align 8
  %47 = getelementptr inbounds %struct.Fraig_NodeStruct_t_, ptr %46, i32 0, i32 18
  %48 = load ptr, ptr %47, align 8
  store ptr %48, ptr %9, align 8
  store i32 0, ptr %10, align 4
  br label %49

49:                                               ; preds = %71, %42
  %50 = load i32, ptr %10, align 4
  %51 = load ptr, ptr %5, align 8
  %52 = getelementptr inbounds %struct.Fraig_ManStruct_t_, ptr %51, i32 0, i32 24
  %53 = load i32, ptr %52, align 8
  %54 = icmp slt i32 %50, %53
  br i1 %54, label %55, label %74

55:                                               ; preds = %49
  %56 = load ptr, ptr %8, align 8
  %57 = load i32, ptr %10, align 4
  %58 = sext i32 %57 to i64
  %59 = getelementptr inbounds i32, ptr %56, i64 %58
  %60 = load i32, ptr %59, align 4
  %61 = load ptr, ptr %9, align 8
  %62 = load i32, ptr %10, align 4
  %63 = sext i32 %62 to i64
  %64 = getelementptr inbounds i32, ptr %61, i64 %63
  %65 = load i32, ptr %64, align 4
  %66 = xor i32 %65, -1
  %67 = and i32 %60, %66
  %68 = icmp ne i32 %67, 0
  br i1 %68, label %69, label %70

69:                                               ; preds = %55
  store i32 0, ptr %4, align 4
  br label %75

70:                                               ; preds = %55
  br label %71

71:                                               ; preds = %70
  %72 = load i32, ptr %10, align 4
  %73 = add nsw i32 %72, 1
  store i32 %73, ptr %10, align 4
  br label %49, !llvm.loop !22

74:                                               ; preds = %49
  store i32 1, ptr %4, align 4
  br label %75

75:                                               ; preds = %74, %69, %37
  %76 = load i32, ptr %4, align 4
  ret i32 %76
}

; Function Attrs: nounwind uwtable
define internal i64 @Abc_Clock() #0 {
  %1 = alloca i64, align 8
  %2 = alloca %struct.timespec, align 8
  %3 = alloca i64, align 8
  %4 = call i32 @clock_gettime(i32 noundef 1, ptr noundef %2) #3
  %5 = icmp slt i32 %4, 0
  br i1 %5, label %6, label %7

6:                                                ; preds = %0
  store i64 -1, ptr %1, align 8
  br label %18

7:                                                ; preds = %0
  %8 = getelementptr inbounds %struct.timespec, ptr %2, i32 0, i32 0
  %9 = load i64, ptr %8, align 8
  %10 = mul nsw i64 %9, 1000000
  store i64 %10, ptr %3, align 8
  %11 = getelementptr inbounds %struct.timespec, ptr %2, i32 0, i32 1
  %12 = load i64, ptr %11, align 8
  %13 = mul nsw i64 %12, 1000000
  %14 = sdiv i64 %13, 1000000000
  %15 = load i64, ptr %3, align 8
  %16 = add nsw i64 %15, %14
  store i64 %16, ptr %3, align 8
  %17 = load i64, ptr %3, align 8
  store i64 %17, ptr %1, align 8
  br label %18

18:                                               ; preds = %7, %6
  %19 = load i64, ptr %1, align 8
  ret i64 %19
}

; Function Attrs: nounwind uwtable
define i32 @Fraig_ManPrintRefs(ptr noundef %0) #0 {
  %2 = alloca ptr, align 8
  %3 = alloca ptr, align 8
  %4 = alloca ptr, align 8
  %5 = alloca ptr, align 8
  %6 = alloca i32, align 4
  %7 = alloca i32, align 4
  %8 = alloca i32, align 4
  %9 = alloca i32, align 4
  %10 = alloca i64, align 8
  store ptr %0, ptr %2, align 8
  %11 = call ptr @Fraig_NodeVecAlloc(i32 noundef 1000)
  store ptr %11, ptr %3, align 8
  store i32 0, ptr %6, align 4
  br label %12

12:                                               ; preds = %55, %1
  %13 = load i32, ptr %6, align 4
  %14 = load ptr, ptr %2, align 8
  %15 = getelementptr inbounds %struct.Fraig_ManStruct_t_, ptr %14, i32 0, i32 1
  %16 = load ptr, ptr %15, align 8
  %17 = getelementptr inbounds %struct.Fraig_NodeVecStruct_t_, ptr %16, i32 0, i32 1
  %18 = load i32, ptr %17, align 4
  %19 = icmp slt i32 %13, %18
  br i1 %19, label %20, label %58

20:                                               ; preds = %12
  %21 = load ptr, ptr %2, align 8
  %22 = getelementptr inbounds %struct.Fraig_ManStruct_t_, ptr %21, i32 0, i32 1
  %23 = load ptr, ptr %22, align 8
  %24 = getelementptr inbounds %struct.Fraig_NodeVecStruct_t_, ptr %23, i32 0, i32 2
  %25 = load ptr, ptr %24, align 8
  %26 = load i32, ptr %6, align 4
  %27 = sext i32 %26 to i64
  %28 = getelementptr inbounds ptr, ptr %25, i64 %27
  %29 = load ptr, ptr %28, align 8
  store ptr %29, ptr %4, align 8
  %30 = load ptr, ptr %4, align 8
  %31 = getelementptr inbounds %struct.Fraig_NodeStruct_t_, ptr %30, i32 0, i32 6
  %32 = load i32, ptr %31, align 8
  %33 = lshr i32 %32, 12
  %34 = icmp eq i32 %33, 0
  br i1 %34, label %45, label %35

35:                                               ; preds = %20
  %36 = load ptr, ptr %4, align 8
  %37 = getelementptr inbounds %struct.Fraig_NodeStruct_t_, ptr %36, i32 0, i32 6
  %38 = load i32, ptr %37, align 8
  %39 = lshr i32 %38, 12
  %40 = load ptr, ptr %2, align 8
  %41 = getelementptr inbounds %struct.Fraig_ManStruct_t_, ptr %40, i32 0, i32 9
  %42 = load i32, ptr %41, align 8
  %43 = mul i32 %42, 32
  %44 = icmp eq i32 %39, %43
  br i1 %44, label %45, label %46

45:                                               ; preds = %35, %20
  br label %55

46:                                               ; preds = %35
  %47 = load ptr, ptr %4, align 8
  %48 = getelementptr inbounds %struct.Fraig_NodeStruct_t_, ptr %47, i32 0, i32 3
  %49 = load i32, ptr %48, align 4
  %50 = icmp sgt i32 %49, 5
  br i1 %50, label %51, label %54

51:                                               ; preds = %46
  %52 = load ptr, ptr %3, align 8
  %53 = load ptr, ptr %4, align 8
  call void @Fraig_NodeVecPush(ptr noundef %52, ptr noundef %53)
  br label %54

54:                                               ; preds = %51, %46
  br label %55

55:                                               ; preds = %54, %45
  %56 = load i32, ptr %6, align 4
  %57 = add nsw i32 %56, 1
  store i32 %57, ptr %6, align 4
  br label %12, !llvm.loop !24

58:                                               ; preds = %12
  %59 = load ptr, ptr %2, align 8
  %60 = getelementptr inbounds %struct.Fraig_ManStruct_t_, ptr %59, i32 0, i32 1
  %61 = load ptr, ptr %60, align 8
  %62 = getelementptr inbounds %struct.Fraig_NodeVecStruct_t_, ptr %61, i32 0, i32 1
  %63 = load i32, ptr %62, align 4
  %64 = load ptr, ptr %3, align 8
  %65 = getelementptr inbounds %struct.Fraig_NodeVecStruct_t_, ptr %64, i32 0, i32 1
  %66 = load i32, ptr %65, align 4
  %67 = call i32 (ptr, ...) @printf(ptr noundef @.str.12, i32 noundef %63, i32 noundef %66)
  %68 = call i64 @Abc_Clock()
  store i64 %68, ptr %10, align 8
  store i32 0, ptr %9, align 4
  store i32 0, ptr %8, align 4
  store i32 0, ptr %6, align 4
  br label %69

69:                                               ; preds = %140, %58
  %70 = load i32, ptr %6, align 4
  %71 = load ptr, ptr %3, align 8
  %72 = getelementptr inbounds %struct.Fraig_NodeVecStruct_t_, ptr %71, i32 0, i32 1
  %73 = load i32, ptr %72, align 4
  %74 = icmp slt i32 %70, %73
  br i1 %74, label %75, label %143

75:                                               ; preds = %69
  %76 = load i32, ptr %6, align 4
  %77 = add nsw i32 %76, 1
  store i32 %77, ptr %7, align 4
  br label %78

78:                                               ; preds = %136, %75
  %79 = load i32, ptr %7, align 4
  %80 = load ptr, ptr %3, align 8
  %81 = getelementptr inbounds %struct.Fraig_NodeVecStruct_t_, ptr %80, i32 0, i32 1
  %82 = load i32, ptr %81, align 4
  %83 = icmp slt i32 %79, %82
  br i1 %83, label %84, label %139

84:                                               ; preds = %78
  %85 = load ptr, ptr %3, align 8
  %86 = getelementptr inbounds %struct.Fraig_NodeVecStruct_t_, ptr %85, i32 0, i32 2
  %87 = load ptr, ptr %86, align 8
  %88 = load i32, ptr %6, align 4
  %89 = sext i32 %88 to i64
  %90 = getelementptr inbounds ptr, ptr %87, i64 %89
  %91 = load ptr, ptr %90, align 8
  store ptr %91, ptr %4, align 8
  %92 = load ptr, ptr %3, align 8
  %93 = getelementptr inbounds %struct.Fraig_NodeVecStruct_t_, ptr %92, i32 0, i32 2
  %94 = load ptr, ptr %93, align 8
  %95 = load i32, ptr %7, align 4
  %96 = sext i32 %95 to i64
  %97 = getelementptr inbounds ptr, ptr %94, i64 %96
  %98 = load ptr, ptr %97, align 8
  store ptr %98, ptr %5, align 8
  %99 = load ptr, ptr %2, align 8
  %100 = load ptr, ptr %4, align 8
  %101 = load ptr, ptr %5, align 8
  %102 = call i32 @Fraig_NodeSimsContained(ptr noundef %99, ptr noundef %100, ptr noundef %101)
  %103 = icmp ne i32 %102, 0
  br i1 %103, label %104, label %116

104:                                              ; preds = %84
  %105 = load ptr, ptr %2, align 8
  %106 = load ptr, ptr %4, align 8
  %107 = load ptr, ptr %5, align 8
  %108 = call i32 @Fraig_NodeIsImplification(ptr noundef %105, ptr noundef %106, ptr noundef %107, i32 noundef -1)
  %109 = icmp ne i32 %108, 0
  br i1 %109, label %110, label %113

110:                                              ; preds = %104
  %111 = load i32, ptr %9, align 4
  %112 = add nsw i32 %111, 1
  store i32 %112, ptr %9, align 4
  br label %113

113:                                              ; preds = %110, %104
  %114 = load i32, ptr %8, align 4
  %115 = add nsw i32 %114, 1
  store i32 %115, ptr %8, align 4
  br label %135

116:                                              ; preds = %84
  %117 = load ptr, ptr %2, align 8
  %118 = load ptr, ptr %5, align 8
  %119 = load ptr, ptr %4, align 8
  %120 = call i32 @Fraig_NodeSimsContained(ptr noundef %117, ptr noundef %118, ptr noundef %119)
  %121 = icmp ne i32 %120, 0
  br i1 %121, label %122, label %134

122:                                              ; preds = %116
  %123 = load ptr, ptr %2, align 8
  %124 = load ptr, ptr %5, align 8
  %125 = load ptr, ptr %4, align 8
  %126 = call i32 @Fraig_NodeIsImplification(ptr noundef %123, ptr noundef %124, ptr noundef %125, i32 noundef -1)
  %127 = icmp ne i32 %126, 0
  br i1 %127, label %128, label %131

128:                                              ; preds = %122
  %129 = load i32, ptr %9, align 4
  %130 = add nsw i32 %129, 1
  store i32 %130, ptr %9, align 4
  br label %131

131:                                              ; preds = %128, %122
  %132 = load i32, ptr %8, align 4
  %133 = add nsw i32 %132, 1
  store i32 %133, ptr %8, align 4
  br label %134

134:                                              ; preds = %131, %116
  br label %135

135:                                              ; preds = %134, %113
  br label %136

136:                                              ; preds = %135
  %137 = load i32, ptr %7, align 4
  %138 = add nsw i32 %137, 1
  store i32 %138, ptr %7, align 4
  br label %78, !llvm.loop !25

139:                                              ; preds = %78
  br label %140

140:                                              ; preds = %139
  %141 = load i32, ptr %6, align 4
  %142 = add nsw i32 %141, 1
  store i32 %142, ptr %6, align 4
  br label %69, !llvm.loop !26

143:                                              ; preds = %69
  %144 = load i32, ptr %8, align 4
  %145 = load i32, ptr %9, align 4
  %146 = call i32 (ptr, ...) @printf(ptr noundef @.str.13, i32 noundef %144, i32 noundef %145)
  ret i32 0
}