; Function Attrs: nounwind uwtable
define noundef i32 @Fraig_ManPrintRefs(ptr noundef %0) local_unnamed_addr #0 {
  %2 = alloca %struct.timespec, align 8
  %3 = tail call ptr @Fraig_NodeVecAlloc(i32 noundef 1000) #15
  %4 = getelementptr inbounds nuw i8, ptr %0, i64 8
  %5 = load ptr, ptr %4, align 8
  %6 = getelementptr inbounds nuw i8, ptr %5, i64 4
  %7 = load i32, ptr %6, align 4
  %8 = icmp sgt i32 %7, 0
  br i1 %8, label %.lr.ph, label %Abc_Clock.exit

.lr.ph:                                           ; preds = %1
  %9 = getelementptr inbounds nuw i8, ptr %0, i64 72
  br label %10

10:                                               ; preds = %.lr.ph, %29
  %11 = phi ptr [ %5, %.lr.ph ], [ %30, %29 ]
  %indvars.iv = phi i64 [ 0, %.lr.ph ], [ %indvars.iv.next, %29 ]
  %12 = getelementptr inbounds nuw i8, ptr %11, i64 8
  %13 = load ptr, ptr %12, align 8
  %14 = getelementptr inbounds nuw ptr, ptr %13, i64 %indvars.iv
  %15 = load ptr, ptr %14, align 8
  %16 = getelementptr inbounds nuw i8, ptr %15, i64 24
  %17 = load i32, ptr %16, align 8
  %18 = icmp ult i32 %17, 4096
  br i1 %18, label %29, label %19

19:                                               ; preds = %10
  %20 = lshr i32 %17, 12
  %21 = load i32, ptr %9, align 8
  %22 = shl i32 %21, 5
  %23 = icmp eq i32 %20, %22
  br i1 %23, label %29, label %24

24:                                               ; preds = %19
  %25 = getelementptr inbounds nuw i8, ptr %15, i64 12
  %26 = load i32, ptr %25, align 4
  %27 = icmp sgt i32 %26, 5
  br i1 %27, label %28, label %29

28:                                               ; preds = %24
  tail call void @Fraig_NodeVecPush(ptr noundef %3, ptr noundef nonnull %15) #15
  %.pre = load ptr, ptr %4, align 8
  br label %29

29:                                               ; preds = %24, %28, %10, %19
  %30 = phi ptr [ %11, %24 ], [ %.pre, %28 ], [ %11, %10 ], [ %11, %19 ]
  %indvars.iv.next = add nuw nsw i64 %indvars.iv, 1
  %31 = getelementptr inbounds nuw i8, ptr %30, i64 4
  %32 = load i32, ptr %31, align 4
  %33 = sext i32 %32 to i64
  %34 = icmp slt i64 %indvars.iv.next, %33
  br i1 %34, label %10, label %Abc_Clock.exit, !llvm.loop !24

Abc_Clock.exit:                                   ; preds = %29, %1
  %.lcssa = phi i32 [ %7, %1 ], [ %32, %29 ]
  %35 = getelementptr inbounds nuw i8, ptr %3, i64 4
  %36 = load i32, ptr %35, align 4
  %37 = tail call i32 (ptr, ...) @printf(ptr noundef nonnull dereferenceable(1) @.str.12, i32 noundef %.lcssa, i32 noundef %36)
  call void @llvm.lifetime.start.p0(i64 16, ptr nonnull %2)
  %38 = call i32 @clock_gettime(i32 noundef 1, ptr noundef nonnull %2) #15
  call void @llvm.lifetime.end.p0(i64 16, ptr nonnull %2)
  %39 = load i32, ptr %35, align 4
  %40 = icmp sgt i32 %39, 0
  br i1 %40, label %.lr.ph87, label %._crit_edge

.lr.ph87:                                         ; preds = %Abc_Clock.exit
  %41 = getelementptr inbounds nuw i8, ptr %3, i64 8
  %42 = getelementptr inbounds nuw i8, ptr %0, i64 72
  %43 = getelementptr inbounds nuw i8, ptr %0, i64 136
  br label %46

.loopexit76.loopexit:                             ; preds = %Fraig_NodeSimsContained.exit69.thread
  %.pre102 = sext i32 %107 to i64
  br label %.loopexit76

.loopexit76:                                      ; preds = %.loopexit76.loopexit, %46
  %.pre-phi = phi i64 [ %.pre102, %.loopexit76.loopexit ], [ %48, %46 ]
  %44 = phi i32 [ %107, %.loopexit76.loopexit ], [ %47, %46 ]
  %.142.lcssa = phi i32 [ %.243, %.loopexit76.loopexit ], [ %.04185, %46 ]
  %.1.lcssa = phi i32 [ %.4, %.loopexit76.loopexit ], [ %.086, %46 ]
  %45 = icmp slt i64 %indvars.iv.next100, %.pre-phi
  %indvars.iv.next95 = add nuw nsw i64 %indvars.iv94, 1
  br i1 %45, label %46, label %._crit_edge, !llvm.loop !25

46:                                               ; preds = %.lr.ph87, %.loopexit76
  %47 = phi i32 [ %39, %.lr.ph87 ], [ %44, %.loopexit76 ]
  %indvars.iv99 = phi i64 [ 0, %.lr.ph87 ], [ %indvars.iv.next100, %.loopexit76 ]
  %indvars.iv94 = phi i64 [ 1, %.lr.ph87 ], [ %indvars.iv.next95, %.loopexit76 ]
  %.086 = phi i32 [ 0, %.lr.ph87 ], [ %.1.lcssa, %.loopexit76 ]
  %.04185 = phi i32 [ 0, %.lr.ph87 ], [ %.142.lcssa, %.loopexit76 ]
  %indvars.iv.next100 = add nuw nsw i64 %indvars.iv99, 1
  %48 = sext i32 %47 to i64
  %49 = icmp slt i64 %indvars.iv.next100, %48
  br i1 %49, label %.lr.ph81, label %.loopexit76

.lr.ph81:                                         ; preds = %46, %Fraig_NodeSimsContained.exit69.thread
  %indvars.iv96 = phi i64 [ %indvars.iv.next97, %Fraig_NodeSimsContained.exit69.thread ], [ %indvars.iv94, %46 ]
  %.180 = phi i32 [ %.4, %Fraig_NodeSimsContained.exit69.thread ], [ %.086, %46 ]
  %.14279 = phi i32 [ %.243, %Fraig_NodeSimsContained.exit69.thread ], [ %.04185, %46 ]
  %50 = load ptr, ptr %41, align 8
  %51 = getelementptr inbounds nuw ptr, ptr %50, i64 %indvars.iv99
  %52 = load ptr, ptr %51, align 8
  %53 = getelementptr inbounds nuw ptr, ptr %50, i64 %indvars.iv96
  %54 = load ptr, ptr %53, align 8
  %55 = getelementptr inbounds nuw i8, ptr %52, i64 104
  %56 = load ptr, ptr %55, align 8
  %57 = getelementptr inbounds nuw i8, ptr %54, i64 104
  %58 = load ptr, ptr %57, align 8
  %59 = load i32, ptr %42, align 8
  %60 = icmp sgt i32 %59, 0
  br i1 %60, label %.lr.ph.preheader.i, label %._crit_edge.i

.lr.ph.preheader.i:                               ; preds = %.lr.ph81
  %wide.trip.count.i = zext nneg i32 %59 to i64
  br label %.lr.ph.i

61:                                               ; preds = %.lr.ph.i
  %indvars.iv.next.i = add nuw nsw i64 %indvars.iv.i, 1
  %exitcond.not.i = icmp eq i64 %indvars.iv.next.i, %wide.trip.count.i
  br i1 %exitcond.not.i, label %._crit_edge.i, label %.lr.ph.i, !llvm.loop !21

.lr.ph.i:                                         ; preds = %61, %.lr.ph.preheader.i
  %indvars.iv.i = phi i64 [ 0, %.lr.ph.preheader.i ], [ %indvars.iv.next.i, %61 ]
  %62 = getelementptr inbounds nuw i32, ptr %56, i64 %indvars.iv.i
  %63 = load i32, ptr %62, align 4
  %64 = getelementptr inbounds nuw i32, ptr %58, i64 %indvars.iv.i
  %65 = load i32, ptr %64, align 4
  %66 = xor i32 %65, -1
  %67 = and i32 %63, %66
  %.not19.i = icmp eq i32 %67, 0
  br i1 %.not19.i, label %61, label %.loopexit

._crit_edge.i:                                    ; preds = %61, %.lr.ph81
  %68 = getelementptr inbounds nuw i8, ptr %52, i64 112
  %69 = load ptr, ptr %68, align 8
  %70 = getelementptr inbounds nuw i8, ptr %54, i64 112
  %71 = load ptr, ptr %70, align 8
  %72 = load i32, ptr %43, align 8
  %73 = icmp sgt i32 %72, 0
  br i1 %73, label %.lr.ph24.preheader.i, label %Fraig_NodeSimsContained.exit

.lr.ph24.preheader.i:                             ; preds = %._crit_edge.i
  %wide.trip.count32.i = zext nneg i32 %72 to i64
  br label %.lr.ph24.i

74:                                               ; preds = %.lr.ph24.i
  %indvars.iv.next30.i = add nuw nsw i64 %indvars.iv29.i, 1
  %exitcond33.not.i = icmp eq i64 %indvars.iv.next30.i, %wide.trip.count32.i
  br i1 %exitcond33.not.i, label %Fraig_NodeSimsContained.exit, label %.lr.ph24.i, !llvm.loop !22

.lr.ph24.i:                                       ; preds = %74, %.lr.ph24.preheader.i
  %indvars.iv29.i = phi i64 [ 0, %.lr.ph24.preheader.i ], [ %indvars.iv.next30.i, %74 ]
  %75 = getelementptr inbounds nuw i32, ptr %69, i64 %indvars.iv29.i
  %76 = load i32, ptr %75, align 4
  %77 = getelementptr inbounds nuw i32, ptr %71, i64 %indvars.iv29.i
  %78 = load i32, ptr %77, align 4
  %79 = xor i32 %78, -1
  %80 = and i32 %76, %79
  %.not.i = icmp eq i32 %80, 0
  br i1 %.not.i, label %74, label %.loopexit

Fraig_NodeSimsContained.exit:                     ; preds = %74, %._crit_edge.i
  %81 = call i32 @Fraig_NodeIsImplification(ptr noundef %0, ptr noundef %52, ptr noundef %54, i32 noundef -1) #15
  %.not51 = icmp ne i32 %81, 0
  %82 = zext i1 %.not51 to i32
  %spec.select = add nsw i32 %.180, %82
  %83 = add nsw i32 %.14279, 1
  br label %Fraig_NodeSimsContained.exit69.thread

.loopexit:                                        ; preds = %.lr.ph.i, %.lr.ph24.i
  br i1 %60, label %.lr.ph.preheader.i62, label %._crit_edge.i53

.lr.ph.preheader.i62:                             ; preds = %.loopexit
  %wide.trip.count.i63 = zext nneg i32 %59 to i64
  br label %.lr.ph.i64

84:                                               ; preds = %.lr.ph.i64
  %indvars.iv.next.i67 = add nuw nsw i64 %indvars.iv.i65, 1
  %exitcond.not.i68 = icmp eq i64 %indvars.iv.next.i67, %wide.trip.count.i63
  br i1 %exitcond.not.i68, label %._crit_edge.i53, label %.lr.ph.i64, !llvm.loop !21

.lr.ph.i64:                                       ; preds = %84, %.lr.ph.preheader.i62
  %indvars.iv.i65 = phi i64 [ 0, %.lr.ph.preheader.i62 ], [ %indvars.iv.next.i67, %84 ]
  %85 = getelementptr inbounds nuw i32, ptr %58, i64 %indvars.iv.i65
  %86 = load i32, ptr %85, align 4
  %87 = getelementptr inbounds nuw i32, ptr %56, i64 %indvars.iv.i65
  %88 = load i32, ptr %87, align 4
  %89 = xor i32 %88, -1
  %90 = and i32 %86, %89
  %.not19.i66 = icmp eq i32 %90, 0
  br i1 %.not19.i66, label %84, label %Fraig_NodeSimsContained.exit69.thread

._crit_edge.i53:                                  ; preds = %84, %.loopexit
  %91 = getelementptr inbounds nuw i8, ptr %54, i64 112
  %92 = load ptr, ptr %91, align 8
  %93 = getelementptr inbounds nuw i8, ptr %52, i64 112
  %94 = load ptr, ptr %93, align 8
  %95 = load i32, ptr %43, align 8
  %96 = icmp sgt i32 %95, 0
  br i1 %96, label %.lr.ph24.preheader.i55, label %Fraig_NodeSimsContained.exit69

.lr.ph24.preheader.i55:                           ; preds = %._crit_edge.i53
  %wide.trip.count32.i56 = zext nneg i32 %95 to i64
  br label %.lr.ph24.i57

97:                                               ; preds = %.lr.ph24.i57
  %indvars.iv.next30.i60 = add nuw nsw i64 %indvars.iv29.i58, 1
  %exitcond33.not.i61 = icmp eq i64 %indvars.iv.next30.i60, %wide.trip.count32.i56
  br i1 %exitcond33.not.i61, label %Fraig_NodeSimsContained.exit69, label %.lr.ph24.i57, !llvm.loop !22

.lr.ph24.i57:                                     ; preds = %97, %.lr.ph24.preheader.i55
  %indvars.iv29.i58 = phi i64 [ 0, %.lr.ph24.preheader.i55 ], [ %indvars.iv.next30.i60, %97 ]
  %98 = getelementptr inbounds nuw i32, ptr %92, i64 %indvars.iv29.i58
  %99 = load i32, ptr %98, align 4
  %100 = getelementptr inbounds nuw i32, ptr %94, i64 %indvars.iv29.i58
  %101 = load i32, ptr %100, align 4
  %102 = xor i32 %101, -1
  %103 = and i32 %99, %102
  %.not.i59 = icmp eq i32 %103, 0
  br i1 %.not.i59, label %97, label %Fraig_NodeSimsContained.exit69.thread

Fraig_NodeSimsContained.exit69:                   ; preds = %97, %._crit_edge.i53
  %104 = call i32 @Fraig_NodeIsImplification(ptr noundef %0, ptr noundef %54, ptr noundef %52, i32 noundef -1) #15
  %.not50 = icmp ne i32 %104, 0
  %105 = zext i1 %.not50 to i32
  %spec.select52 = add nsw i32 %.180, %105
  %106 = add nsw i32 %.14279, 1
  br label %Fraig_NodeSimsContained.exit69.thread

Fraig_NodeSimsContained.exit69.thread:            ; preds = %.lr.ph.i64, %.lr.ph24.i57, %Fraig_NodeSimsContained.exit, %Fraig_NodeSimsContained.exit69
  %.243 = phi i32 [ %83, %Fraig_NodeSimsContained.exit ], [ %106, %Fraig_NodeSimsContained.exit69 ], [ %.14279, %.lr.ph24.i57 ], [ %.14279, %.lr.ph.i64 ]
  %.4 = phi i32 [ %spec.select, %Fraig_NodeSimsContained.exit ], [ %spec.select52, %Fraig_NodeSimsContained.exit69 ], [ %.180, %.lr.ph24.i57 ], [ %.180, %.lr.ph.i64 ]
  %indvars.iv.next97 = add nuw nsw i64 %indvars.iv96, 1
  %107 = load i32, ptr %35, align 4
  %108 = trunc nuw i64 %indvars.iv.next97 to i32
  %109 = icmp sgt i32 %107, %108
  br i1 %109, label %.lr.ph81, label %.loopexit76.loopexit, !llvm.loop !26

._crit_edge:                                      ; preds = %.loopexit76, %Abc_Clock.exit
  %.041.lcssa = phi i32 [ 0, %Abc_Clock.exit ], [ %.142.lcssa, %.loopexit76 ]
  %.0.lcssa = phi i32 [ 0, %Abc_Clock.exit ], [ %.1.lcssa, %.loopexit76 ]
  %110 = call i32 (ptr, ...) @printf(ptr noundef nonnull dereferenceable(1) @.str.13, i32 noundef %.041.lcssa, i32 noundef %.0.lcssa)
  ret i32 0
}